; Function Attrs: mustprogress nounwind uwtable
define noundef nonnull align 8 dereferenceable(8) ptr @_ZN5folly6detail10PerfScopedaSEOS1_(ptr noundef nonnull returned align 8 dereferenceable(8) %0, ptr noundef nonnull align 8 captures(none) dereferenceable(8) %1) local_unnamed_addr #10 align 2 personality ptr @__gxx_personality_v0 {
  %3 = load ptr, ptr %1, align 8, !tbaa !10
  store ptr null, ptr %1, align 8, !tbaa !10
  %4 = load ptr, ptr %0, align 8, !tbaa !10
  store ptr %3, ptr %0, align 8, !tbaa !10
  %.not.i.i.i.i = icmp eq ptr %4, null
  br i1 %.not.i.i.i.i, label %_ZNSt10unique_ptrIN5folly6detail10PerfScoped14PerfScopedImplESt14default_deleteIS3_EEaSEOS6_.exit, label %5

5:                                                ; preds = %2
  tail call void @_ZNKSt14default_deleteIN5folly6detail10PerfScoped14PerfScopedImplEEclEPS3_(ptr noundef nonnull align 8 dereferenceable(8) %0, ptr noundef nonnull %4)
  br label %_ZNSt10unique_ptrIN5folly6detail10PerfScoped14PerfScopedImplESt14default_deleteIS3_EEaSEOS6_.exit

_ZNSt10unique_ptrIN5folly6detail10PerfScoped14PerfScopedImplESt14default_deleteIS3_EEaSEOS6_.exit: ; preds = %2, %5
  ret ptr %0
}